; Function Attrs: mustprogress nounwind uwtable
define internal noundef zeroext i1 @"_ZN4llvm12function_refIFbPKN5clang13CXXRecordDeclEEE11callback_fnIZNKS2_24isProvablyNotDerivedFromES4_E3$_0EEblS4_"(i64 noundef %0, ptr noundef %1) #0 align 2 {
  %3 = inttoptr i64 %0 to ptr
  %4 = load ptr, ptr %1, align 8
  %5 = getelementptr inbounds i8, ptr %4, i64 32
  %6 = load ptr, ptr %5, align 8
  %7 = tail call noundef ptr %6(ptr noundef nonnull align 8 dereferenceable(144) %1) #15
  %8 = load ptr, ptr %3, align 8
  %9 = icmp ne ptr %7, %8
  ret i1 %9
}